(dp1
S'username'
p2
(dp3
S'hpass'
p4
S'5f4dcc3b5aa765d61d8327deb882cf99'
p5
ssS'ciao'
p6
(dp7
S'hpass'
p8
S'6e6bc4e49dd477ebc98ef4046c067b5f'
p9
ssS'rantonels'
p10
(dp11
S'hpass'
p12
S'aa411e2de6edb606e608482ebf510fb8'
p13
ssS'sasabel'
p14
(dp15
S'hpass'
p16
S'a8a64cef262a04de4872b68b63ab7cd8'
p17
ssS'ciao1'
p18
(dp19
S'hpass'
p20
S'b7dba5a1bc3605a87b59ac8147512c97'
p21
ssS'testaccount'
p22
(dp23
S'hpass'
p24
S'1a1dc91c907325c69271ddf0c944bc72'
p25
ssS'test'
p26
(dp27
S'hpass'
p28
S'098f6bcd4621d373cade4e832627b4f6'
p29
ssS'piselly'
p30
(dp31
S'hpass'
p32
S'b7dba5a1bc3605a87b59ac8147512c97'
p33
ssS'Enucatl'
p34
(dp35
S'hpass'
p36
S'acf37bf5031202311af9d7ccf6cbef04'
p37
ss.